target datalayout = "e-m:e-p270:32:32-p271:32:32-p272:64:64-i64:64-i128:128-f80:128-n8:16:32:64-S128"
target triple = "x86_64-pc-linux-gnu"

%struct.HASH_SEQ_STATUS = type { ptr, i32, ptr, i8, i32 }

@RecoveryLockXidHash = internal global ptr null, align 8
@.str.7 = private unnamed_addr constant [10 x i8] c"standby.c\00", align 1
@.str.12 = private unnamed_addr constant [26 x i8] c"release all standby locks\00", align 1
@__func__.StandbyReleaseAllLocks = private unnamed_addr constant [23 x i8] c"StandbyReleaseAllLocks\00", align 1

; Function Attrs: nounwind uwtable
define dso_local void @StandbyReleaseAllLocks() #0 {
  %1 = alloca %struct.HASH_SEQ_STATUS, align 8
  %2 = alloca ptr, align 8
  call void @llvm.lifetime.start.p0(i64 32, ptr %1) #8
  call void @llvm.lifetime.start.p0(i64 8, ptr %2) #8
  br label %3

3:                                                ; preds = %0
  br i1 false, label %4, label %6

4:                                                ; preds = %3
  %5 = call zeroext i1 @errstart_cold(i32 noundef 13, ptr noundef null) #9
  br i1 %5, label %8, label %10

6:                                                ; preds = %3
  %7 = call zeroext i1 @errstart(i32 noundef 13, ptr noundef null)
  br i1 %7, label %8, label %10

8:                                                ; preds = %6, %4
  %9 = call i32 (ptr, ...) @errmsg_internal(ptr noundef @.str.12)
  call void @errfinish(ptr noundef @.str.7, i32 noundef 1110, ptr noundef @__func__.StandbyReleaseAllLocks)
  br label %10

10:                                               ; preds = %8, %6, %4
  br label %11

11:                                               ; preds = %10
  br label %12

12:                                               ; preds = %11
  %13 = load ptr, ptr @RecoveryLockXidHash, align 8
  call void @hash_seq_init(ptr noundef %1, ptr noundef %13)
  br label %14

14:                                               ; preds = %17, %12
  %15 = call ptr @hash_seq_search(ptr noundef %1)
  store ptr %15, ptr %2, align 8
  %16 = icmp ne ptr %15, null
  br i1 %16, label %17, label %22

17:                                               ; preds = %14
  %18 = load ptr, ptr %2, align 8
  call void @StandbyReleaseXidEntryLocks(ptr noundef %18)
  %19 = load ptr, ptr @RecoveryLockXidHash, align 8
  %20 = load ptr, ptr %2, align 8
  %21 = call ptr @hash_search(ptr noundef %19, ptr noundef %20, i32 noundef 2, ptr noundef null)
  br label %14, !llvm.loop !4

22:                                               ; preds = %14
  call void @llvm.lifetime.end.p0(i64 8, ptr %2) #8
  call void @llvm.lifetime.end.p0(i64 32, ptr %1) #8
  ret void
}