; Function Attrs: nounwind uwtable
define dso_local void @StandbyReleaseAllLocks() local_unnamed_addr #0 {
  %1 = alloca %struct.HASH_SEQ_STATUS, align 8
  call void @llvm.lifetime.start.p0(i64 32, ptr nonnull %1) #7
  %2 = tail call zeroext i1 @errstart(i32 noundef 13, ptr noundef null) #7
  br i1 %2, label %3, label %5

3:                                                ; preds = %0
  %4 = tail call i32 (ptr, ...) @errmsg_internal(ptr noundef nonnull @.str.12) #7
  tail call void @errfinish(ptr noundef nonnull @.str.7, i32 noundef 1110, ptr noundef nonnull @__func__.StandbyReleaseAllLocks) #7
  br label %5

5:                                                ; preds = %3, %0
  %6 = load ptr, ptr @RecoveryLockXidHash, align 8
  call void @hash_seq_init(ptr noundef nonnull %1, ptr noundef %6) #7
  %7 = call ptr @hash_seq_search(ptr noundef nonnull %1) #7
  %.not2 = icmp eq ptr %7, null
  br i1 %.not2, label %._crit_edge, label %.lr.ph

.lr.ph:                                           ; preds = %5, %.lr.ph
  %8 = phi ptr [ %11, %.lr.ph ], [ %7, %5 ]
  call fastcc void @StandbyReleaseXidEntryLocks(ptr noundef %8)
  %9 = load ptr, ptr @RecoveryLockXidHash, align 8
  %10 = call ptr @hash_search(ptr noundef %9, ptr noundef nonnull %8, i32 noundef 2, ptr noundef null) #7
  %11 = call ptr @hash_seq_search(ptr noundef nonnull %1) #7
  %.not = icmp eq ptr %11, null
  br i1 %.not, label %._crit_edge, label %.lr.ph, !llvm.loop !4

._crit_edge:                                      ; preds = %.lr.ph, %5
  call void @llvm.lifetime.end.p0(i64 32, ptr nonnull %1) #7
  ret void
}